; Function Attrs: mustprogress uwtable
define void @_ZN10open_spiel10backgammon17CurPlayerToStringB5cxx11Ei(ptr dead_on_unwind noalias writable sret(%"class.std::__cxx11::basic_string") align 8 %0, i32 noundef %1) local_unnamed_addr #4 personality ptr @__gxx_personality_v0 {
  %3 = alloca %"class.std::allocator.12", align 1
  %4 = alloca %"class.std::allocator.12", align 1
  %5 = alloca %"class.std::allocator.12", align 1
  %6 = alloca %"class.std::allocator.12", align 1
  %7 = alloca %"class.std::__cxx11::basic_string", align 8
  %8 = alloca %"class.absl::debian2::AlphaNum", align 8
  %9 = alloca %"class.absl::debian2::AlphaNum", align 8
  switch i32 %1, label %_ZN4absl7debian28AlphaNumC2EPKc.exit [
    i32 0, label %10
    i32 1, label %16
    i32 -1, label %22
    i32 -4, label %28
  ]

10:                                               ; preds = %2
  call void @_ZNSaIcEC1Ev(ptr noundef nonnull align 1 dereferenceable(1) %3) #30
  %11 = invoke noundef ptr @_ZNSt7__cxx1112basic_stringIcSt11char_traitsIcESaIcEE13_M_local_dataEv(ptr noundef nonnull align 8 dereferenceable(32) %0)
          to label %.noexc unwind label %14

.noexc:                                           ; preds = %10
  invoke void @_ZNSt7__cxx1112basic_stringIcSt11char_traitsIcESaIcEE12_Alloc_hiderC1EPcRKS3_(ptr noundef nonnull align 8 dereferenceable(8) %0, ptr noundef %11, ptr noundef nonnull align 1 dereferenceable(1) %3)
          to label %.noexc5 unwind label %14

.noexc5:                                          ; preds = %.noexc
  invoke void @_ZNSt7__cxx1112basic_stringIcSt11char_traitsIcESaIcEE12_M_constructIPKcEEvT_S8_St20forward_iterator_tag(ptr noundef nonnull align 8 dereferenceable(32) %0, ptr noundef nonnull @.str.16, ptr noundef nonnull getelementptr inbounds (i8, ptr @.str.16, i64 1))
          to label %_ZNSt7__cxx1112basic_stringIcSt11char_traitsIcESaIcEEC2IS3_EEPKcRKS3_.exit unwind label %12

12:                                               ; preds = %.noexc5
  %13 = landingpad { ptr, i32 }
          cleanup
  call void @_ZNSaIcED2Ev(ptr noundef nonnull align 1 dereferenceable(1) %0) #30
  br label %.body

14:                                               ; preds = %.noexc, %10
  %15 = landingpad { ptr, i32 }
          cleanup
  br label %.body

.body:                                            ; preds = %12, %14
  %eh.lpad-body = phi { ptr, i32 } [ %15, %14 ], [ %13, %12 ]
  call void @_ZNSaIcED1Ev(ptr noundef nonnull align 1 dereferenceable(1) %3) #30
  br label %46

16:                                               ; preds = %2
  call void @_ZNSaIcEC1Ev(ptr noundef nonnull align 1 dereferenceable(1) %4) #30
  %17 = invoke noundef ptr @_ZNSt7__cxx1112basic_stringIcSt11char_traitsIcESaIcEE13_M_local_dataEv(ptr noundef nonnull align 8 dereferenceable(32) %0)
          to label %.noexc6 unwind label %20

.noexc6:                                          ; preds = %16
  invoke void @_ZNSt7__cxx1112basic_stringIcSt11char_traitsIcESaIcEE12_Alloc_hiderC1EPcRKS3_(ptr noundef nonnull align 8 dereferenceable(8) %0, ptr noundef %17, ptr noundef nonnull align 1 dereferenceable(1) %4)
          to label %.noexc7 unwind label %20

.noexc7:                                          ; preds = %.noexc6
  invoke void @_ZNSt7__cxx1112basic_stringIcSt11char_traitsIcESaIcEE12_M_constructIPKcEEvT_S8_St20forward_iterator_tag(ptr noundef nonnull align 8 dereferenceable(32) %0, ptr noundef nonnull @.str.17, ptr noundef nonnull getelementptr inbounds (i8, ptr @.str.17, i64 1))
          to label %_ZNSt7__cxx1112basic_stringIcSt11char_traitsIcESaIcEEC2IS3_EEPKcRKS3_.exit unwind label %18

18:                                               ; preds = %.noexc7
  %19 = landingpad { ptr, i32 }
          cleanup
  call void @_ZNSaIcED2Ev(ptr noundef nonnull align 1 dereferenceable(1) %0) #30
  br label %.body8

20:                                               ; preds = %.noexc6, %16
  %21 = landingpad { ptr, i32 }
          cleanup
  br label %.body8

.body8:                                           ; preds = %18, %20
  %eh.lpad-body9 = phi { ptr, i32 } [ %21, %20 ], [ %19, %18 ]
  call void @_ZNSaIcED1Ev(ptr noundef nonnull align 1 dereferenceable(1) %4) #30
  br label %46

22:                                               ; preds = %2
  call void @_ZNSaIcEC1Ev(ptr noundef nonnull align 1 dereferenceable(1) %5) #30
  %23 = invoke noundef ptr @_ZNSt7__cxx1112basic_stringIcSt11char_traitsIcESaIcEE13_M_local_dataEv(ptr noundef nonnull align 8 dereferenceable(32) %0)
          to label %.noexc11 unwind label %26

.noexc11:                                         ; preds = %22
  invoke void @_ZNSt7__cxx1112basic_stringIcSt11char_traitsIcESaIcEE12_Alloc_hiderC1EPcRKS3_(ptr noundef nonnull align 8 dereferenceable(8) %0, ptr noundef %23, ptr noundef nonnull align 1 dereferenceable(1) %5)
          to label %.noexc12 unwind label %26

.noexc12:                                         ; preds = %.noexc11
  invoke void @_ZNSt7__cxx1112basic_stringIcSt11char_traitsIcESaIcEE12_M_constructIPKcEEvT_S8_St20forward_iterator_tag(ptr noundef nonnull align 8 dereferenceable(32) %0, ptr noundef nonnull @.str.18, ptr noundef nonnull getelementptr inbounds (i8, ptr @.str.18, i64 1))
          to label %_ZNSt7__cxx1112basic_stringIcSt11char_traitsIcESaIcEEC2IS3_EEPKcRKS3_.exit unwind label %24

24:                                               ; preds = %.noexc12
  %25 = landingpad { ptr, i32 }
          cleanup
  call void @_ZNSaIcED2Ev(ptr noundef nonnull align 1 dereferenceable(1) %0) #30
  br label %.body13

26:                                               ; preds = %.noexc11, %22
  %27 = landingpad { ptr, i32 }
          cleanup
  br label %.body13

.body13:                                          ; preds = %24, %26
  %eh.lpad-body14 = phi { ptr, i32 } [ %27, %26 ], [ %25, %24 ]
  call void @_ZNSaIcED1Ev(ptr noundef nonnull align 1 dereferenceable(1) %5) #30
  br label %46

28:                                               ; preds = %2
  call void @_ZNSaIcEC1Ev(ptr noundef nonnull align 1 dereferenceable(1) %6) #30
  %29 = invoke noundef ptr @_ZNSt7__cxx1112basic_stringIcSt11char_traitsIcESaIcEE13_M_local_dataEv(ptr noundef nonnull align 8 dereferenceable(32) %0)
          to label %.noexc16 unwind label %32

.noexc16:                                         ; preds = %28
  invoke void @_ZNSt7__cxx1112basic_stringIcSt11char_traitsIcESaIcEE12_Alloc_hiderC1EPcRKS3_(ptr noundef nonnull align 8 dereferenceable(8) %0, ptr noundef %29, ptr noundef nonnull align 1 dereferenceable(1) %6)
          to label %.noexc17 unwind label %32

.noexc17:                                         ; preds = %.noexc16
  invoke void @_ZNSt7__cxx1112basic_stringIcSt11char_traitsIcESaIcEE12_M_constructIPKcEEvT_S8_St20forward_iterator_tag(ptr noundef nonnull align 8 dereferenceable(32) %0, ptr noundef nonnull @.str.19, ptr noundef nonnull getelementptr inbounds (i8, ptr @.str.19, i64 1))
          to label %_ZNSt7__cxx1112basic_stringIcSt11char_traitsIcESaIcEEC2IS3_EEPKcRKS3_.exit unwind label %30

30:                                               ; preds = %.noexc17
  %31 = landingpad { ptr, i32 }
          cleanup
  call void @_ZNSaIcED2Ev(ptr noundef nonnull align 1 dereferenceable(1) %0) #30
  br label %.body18

32:                                               ; preds = %.noexc16, %28
  %33 = landingpad { ptr, i32 }
          cleanup
  br label %.body18

.body18:                                          ; preds = %30, %32
  %eh.lpad-body19 = phi { ptr, i32 } [ %33, %32 ], [ %31, %30 ]
  call void @_ZNSaIcED1Ev(ptr noundef nonnull align 1 dereferenceable(1) %6) #30
  br label %46

_ZN4absl7debian28AlphaNumC2EPKc.exit:             ; preds = %2
  store ptr @.str.20, ptr %8, align 8
  %34 = getelementptr inbounds nuw i8, ptr %8, i64 8
  store i64 24, ptr %34, align 8
  %35 = getelementptr inbounds nuw i8, ptr %9, i64 16
  %36 = call noundef ptr @_ZN4absl7debian216numbers_internal15FastIntToBufferEiPc(i32 noundef %1, ptr noundef nonnull %35)
  %37 = ptrtoint ptr %36 to i64
  %38 = ptrtoint ptr %35 to i64
  %39 = sub i64 %37, %38
  store ptr %35, ptr %9, align 8
  %40 = icmp sgt i64 %39, -1
  br i1 %40, label %_ZN4absl7debian28AlphaNumC2Ei.exit, label %41

41:                                               ; preds = %_ZN4absl7debian28AlphaNumC2EPKc.exit
  call void @llvm.trap()
  unreachable

_ZN4absl7debian28AlphaNumC2Ei.exit:               ; preds = %_ZN4absl7debian28AlphaNumC2EPKc.exit
  %42 = getelementptr inbounds nuw i8, ptr %9, i64 8
  store i64 %39, ptr %42, align 8
  call void @_ZN4absl7debian26StrCatB5cxx11ERKNS0_8AlphaNumES3_(ptr dead_on_unwind nonnull writable sret(%"class.std::__cxx11::basic_string") align 8 %7, ptr noundef nonnull align 8 dereferenceable(48) %8, ptr noundef nonnull align 8 dereferenceable(48) %9)
  invoke void @_ZN10open_spiel15SpielFatalErrorERKNSt7__cxx1112basic_stringIcSt11char_traitsIcESaIcEEE(ptr noundef nonnull align 8 dereferenceable(32) %7) #29
          to label %43 unwind label %44

43:                                               ; preds = %_ZN4absl7debian28AlphaNumC2Ei.exit
  unreachable

44:                                               ; preds = %_ZN4absl7debian28AlphaNumC2Ei.exit
  %45 = landingpad { ptr, i32 }
          cleanup
  call void @_ZNSt7__cxx1112basic_stringIcSt11char_traitsIcESaIcEED1Ev(ptr noundef nonnull align 8 dereferenceable(32) %7) #30
  br label %46

_ZNSt7__cxx1112basic_stringIcSt11char_traitsIcESaIcEEC2IS3_EEPKcRKS3_.exit: ; preds = %.noexc17, %.noexc12, %.noexc7, %.noexc5
  %.sink = phi ptr [ %3, %.noexc5 ], [ %4, %.noexc7 ], [ %5, %.noexc12 ], [ %6, %.noexc17 ]
  call void @_ZNSaIcED1Ev(ptr noundef nonnull align 1 dereferenceable(1) %.sink) #30
  ret void

46:                                               ; preds = %44, %.body18, %.body13, %.body8, %.body
  %.pn = phi { ptr, i32 } [ %45, %44 ], [ %eh.lpad-body19, %.body18 ], [ %eh.lpad-body14, %.body13 ], [ %eh.lpad-body9, %.body8 ], [ %eh.lpad-body, %.body ]
  resume { ptr, i32 } %.pn
}